; Function Attrs: mustprogress uwtable
define dso_local void @_ZN4Luau7CodeGen3X6416IrCallWrapperX6414renameRegisterERNS1_11RegisterX64ES3_S3_(ptr noundef nonnull align 8 captures(none) dereferenceable(240) %0, ptr noundef nonnull align 1 captures(none) dereferenceable(1) %1, i8 %2, i8 %3) local_unnamed_addr #4 align 2 {
  %.sroa.03.0.copyload = load i8, ptr %1, align 1, !tbaa !26
  %5 = and i8 %.sroa.03.0.copyload, 7
  %6 = icmp ne i8 %5, 5
  %7 = and i8 %2, 7
  %8 = icmp eq i8 %7, 5
  %9 = xor i1 %8, %6
  %.unshifted.i = xor i8 %.sroa.03.0.copyload, %2
  %10 = icmp ult i8 %.unshifted.i, 8
  %or.cond = and i1 %10, %9
  br i1 %or.cond, label %11, label %_ZN4Luau7CodeGen3X64L22sameUnderlyingRegisterENS1_11RegisterX64ES2_.exit.thread

11:                                               ; preds = %4
  %12 = and i8 %3, 7
  switch i8 %12, label %13 [
    i8 5, label %.sink.split.i
    i8 0, label %_ZN4Luau7CodeGen3X6416IrCallWrapperX6414addRegisterUseENS1_11RegisterX64E.exit
  ]

13:                                               ; preds = %11
  br label %.sink.split.i

.sink.split.i:                                    ; preds = %13, %11
  %.sink.i = phi i64 [ 208, %13 ], [ 224, %11 ]
  %14 = getelementptr inbounds nuw i8, ptr %0, i64 %.sink.i
  %15 = lshr i8 %3, 3
  %16 = zext nneg i8 %15 to i64
  %17 = getelementptr inbounds nuw [16 x i8], ptr %14, i64 0, i64 %16
  %18 = load i8, ptr %17, align 1, !tbaa !26
  %19 = add i8 %18, 1
  store i8 %19, ptr %17, align 1, !tbaa !26
  %.sroa.0.0.copyload.pre = load i8, ptr %1, align 1, !tbaa !26
  br label %_ZN4Luau7CodeGen3X6416IrCallWrapperX6414addRegisterUseENS1_11RegisterX64E.exit

_ZN4Luau7CodeGen3X6416IrCallWrapperX6414addRegisterUseENS1_11RegisterX64E.exit: ; preds = %11, %.sink.split.i
  %.sroa.0.0.copyload = phi i8 [ %.sroa.03.0.copyload, %11 ], [ %.sroa.0.0.copyload.pre, %.sink.split.i ]
  %20 = and i8 %.sroa.0.0.copyload, 7
  switch i8 %20, label %29 [
    i8 5, label %21
    i8 0, label %_ZN4Luau7CodeGen3X6416IrCallWrapperX6417removeRegisterUseENS1_11RegisterX64E.exit
  ]

21:                                               ; preds = %_ZN4Luau7CodeGen3X6416IrCallWrapperX6414addRegisterUseENS1_11RegisterX64E.exit
  %22 = getelementptr inbounds nuw i8, ptr %0, i64 224
  %23 = lshr i8 %.sroa.0.0.copyload, 3
  %24 = zext nneg i8 %23 to i64
  %25 = getelementptr inbounds nuw [16 x i8], ptr %22, i64 0, i64 %24
  %26 = load i8, ptr %25, align 1, !tbaa !26
  %27 = add i8 %26, -1
  store i8 %27, ptr %25, align 1, !tbaa !26
  %28 = icmp eq i8 %27, 0
  br i1 %28, label %.sink.split.i10, label %_ZN4Luau7CodeGen3X6416IrCallWrapperX6417removeRegisterUseENS1_11RegisterX64E.exit

29:                                               ; preds = %_ZN4Luau7CodeGen3X6416IrCallWrapperX6414addRegisterUseENS1_11RegisterX64E.exit
  %30 = getelementptr inbounds nuw i8, ptr %0, i64 208
  %31 = lshr i8 %.sroa.0.0.copyload, 3
  %32 = zext nneg i8 %31 to i64
  %33 = getelementptr inbounds nuw [16 x i8], ptr %30, i64 0, i64 %32
  %34 = load i8, ptr %33, align 1, !tbaa !26
  %35 = add i8 %34, -1
  store i8 %35, ptr %33, align 1, !tbaa !26
  %36 = icmp eq i8 %35, 0
  br i1 %36, label %37, label %_ZN4Luau7CodeGen3X6416IrCallWrapperX6417removeRegisterUseENS1_11RegisterX64E.exit

37:                                               ; preds = %29
  %38 = load ptr, ptr %0, align 8, !tbaa !70
  %39 = tail call noundef zeroext i1 @_ZNK4Luau7CodeGen3X6413IrRegAllocX6413shouldFreeGprENS1_11RegisterX64E(ptr noundef nonnull align 8 dereferenceable(256) %38, i8 %.sroa.0.0.copyload)
  br i1 %39, label %.sink.split.i10, label %_ZN4Luau7CodeGen3X6416IrCallWrapperX6417removeRegisterUseENS1_11RegisterX64E.exit

.sink.split.i10:                                  ; preds = %37, %21
  %40 = load ptr, ptr %0, align 8, !tbaa !70
  tail call void @_ZN4Luau7CodeGen3X6413IrRegAllocX647freeRegENS1_11RegisterX64E(ptr noundef nonnull align 8 dereferenceable(256) %40, i8 %.sroa.0.0.copyload)
  br label %_ZN4Luau7CodeGen3X6416IrCallWrapperX6417removeRegisterUseENS1_11RegisterX64E.exit

_ZN4Luau7CodeGen3X6416IrCallWrapperX6417removeRegisterUseENS1_11RegisterX64E.exit: ; preds = %_ZN4Luau7CodeGen3X6416IrCallWrapperX6414addRegisterUseENS1_11RegisterX64E.exit, %21, %29, %37, %.sink.split.i10
  %41 = and i8 %3, -8
  %42 = load i8, ptr %1, align 1
  %43 = and i8 %42, 7
  %44 = or disjoint i8 %43, %41
  store i8 %44, ptr %1, align 1
  br label %_ZN4Luau7CodeGen3X64L22sameUnderlyingRegisterENS1_11RegisterX64ES2_.exit.thread

_ZN4Luau7CodeGen3X64L22sameUnderlyingRegisterENS1_11RegisterX64ES2_.exit.thread: ; preds = %4, %_ZN4Luau7CodeGen3X6416IrCallWrapperX6417removeRegisterUseENS1_11RegisterX64E.exit
  ret void
}